; ModuleID = '14/1288.c'
source_filename = "14/1288.c"
target datalayout = "e-m:e-p270:32:32-p271:32:32-p272:64:64-i64:64-f80:128-n8:16:32:64-S128"
target triple = "x86_64-pc-linux-gnu"

%struct.student = type { i32, i32, i32, i32, %struct.student* }

@.str = private unnamed_addr constant [3 x i8] c"%d\00", align 1
@.str.1 = private unnamed_addr constant [7 x i8] c"%d%d%d\00", align 1
@.str.2 = private unnamed_addr constant [7 x i8] c"%d %d\0A\00", align 1

; Function Attrs: noinline nounwind uwtable
define dso_local void @main() #0 {
  %1 = alloca i32, align 4
  %2 = alloca i32, align 4
  %3 = alloca i32, align 4
  %4 = alloca %struct.student*, align 8
  %5 = alloca %struct.student*, align 8
  %6 = alloca %struct.student*, align 8
  %7 = call i32 (i8*, ...) @__isoc99_scanf(i8* getelementptr inbounds ([3 x i8], [3 x i8]* @.str, i64 0, i64 0), i32* %1)
  store %struct.student* null, %struct.student** %6, align 8
  store i32 0, i32* %2, align 4
  br label %8

8:                                                ; preds = %43, %0
  %9 = load i32, i32* %2, align 4
  %10 = load i32, i32* %1, align 4
  %11 = icmp slt i32 %9, %10
  br i1 %11, label %12, label %46

12:                                               ; preds = %8
  %13 = load i32, i32* %2, align 4
  %14 = icmp eq i32 %13, 0
  br i1 %14, label %15, label %18

15:                                               ; preds = %12
  %16 = call noalias i8* @malloc(i64 100) #3
  %17 = bitcast i8* %16 to %struct.student*
  store %struct.student* %17, %struct.student** %4, align 8
  store %struct.student* %17, %struct.student** %6, align 8
  br label %26

18:                                               ; preds = %12
  %19 = call noalias i8* @malloc(i64 100) #3
  %20 = bitcast i8* %19 to %struct.student*
  %21 = load %struct.student*, %struct.student** %4, align 8
  %22 = getelementptr inbounds %struct.student, %struct.student* %21, i32 0, i32 4
  store %struct.student* %20, %struct.student** %22, align 8
  %23 = load %struct.student*, %struct.student** %4, align 8
  %24 = getelementptr inbounds %struct.student, %struct.student* %23, i32 0, i32 4
  %25 = load %struct.student*, %struct.student** %24, align 8
  store %struct.student* %25, %struct.student** %4, align 8
  br label %26

26:                                               ; preds = %18, %15
  %27 = load %struct.student*, %struct.student** %4, align 8
  %28 = getelementptr inbounds %struct.student, %struct.student* %27, i32 0, i32 0
  %29 = load %struct.student*, %struct.student** %4, align 8
  %30 = getelementptr inbounds %struct.student, %struct.student* %29, i32 0, i32 1
  %31 = load %struct.student*, %struct.student** %4, align 8
  %32 = getelementptr inbounds %struct.student, %struct.student* %31, i32 0, i32 2
  %33 = call i32 (i8*, ...) @__isoc99_scanf(i8* getelementptr inbounds ([7 x i8], [7 x i8]* @.str.1, i64 0, i64 0), i32* %28, i32* %30, i32* %32)
  %34 = load %struct.student*, %struct.student** %4, align 8
  %35 = getelementptr inbounds %struct.student, %struct.student* %34, i32 0, i32 1
  %36 = load i32, i32* %35, align 4
  %37 = load %struct.student*, %struct.student** %4, align 8
  %38 = getelementptr inbounds %struct.student, %struct.student* %37, i32 0, i32 2
  %39 = load i32, i32* %38, align 8
  %40 = add nsw i32 %36, %39
  %41 = load %struct.student*, %struct.student** %4, align 8
  %42 = getelementptr inbounds %struct.student, %struct.student* %41, i32 0, i32 3
  store i32 %40, i32* %42, align 4
  br label %43

43:                                               ; preds = %26
  %44 = load i32, i32* %2, align 4
  %45 = add nsw i32 %44, 1
  store i32 %45, i32* %2, align 4
  br label %8

46:                                               ; preds = %8
  %47 = load %struct.student*, %struct.student** %4, align 8
  %48 = getelementptr inbounds %struct.student, %struct.student* %47, i32 0, i32 4
  store %struct.student* null, %struct.student** %48, align 8
  store i32 0, i32* %2, align 4
  br label %49

49:                                               ; preds = %87, %46
  %50 = load i32, i32* %2, align 4
  %51 = icmp slt i32 %50, 3
  br i1 %51, label %52, label %90

52:                                               ; preds = %49
  %53 = load %struct.student*, %struct.student** %6, align 8
  store %struct.student* %53, %struct.student** %4, align 8
  %54 = load %struct.student*, %struct.student** %4, align 8
  %55 = getelementptr inbounds %struct.student, %struct.student* %54, i32 0, i32 3
  %56 = load i32, i32* %55, align 4
  store i32 %56, i32* %3, align 4
  br label %57

57:                                               ; preds = %72, %52
  %58 = load %struct.student*, %struct.student** %4, align 8
  %59 = getelementptr inbounds %struct.student, %struct.student* %58, i32 0, i32 4
  %60 = load %struct.student*, %struct.student** %59, align 8
  store %struct.student* %60, %struct.student** %4, align 8
  %61 = load %struct.student*, %struct.student** %4, align 8
  %62 = getelementptr inbounds %struct.student, %struct.student* %61, i32 0, i32 3
  %63 = load i32, i32* %62, align 4
  %64 = load i32, i32* %3, align 4
  %65 = icmp sgt i32 %63, %64
  br i1 %65, label %66, label %71

66:                                               ; preds = %57
  %67 = load %struct.student*, %struct.student** %4, align 8
  %68 = getelementptr inbounds %struct.student, %struct.student* %67, i32 0, i32 3
  %69 = load i32, i32* %68, align 4
  store i32 %69, i32* %3, align 4
  %70 = load %struct.student*, %struct.student** %4, align 8
  store %struct.student* %70, %struct.student** %5, align 8
  br label %71

71:                                               ; preds = %66, %57
  br label %72

72:                                               ; preds = %71
  %73 = load %struct.student*, %struct.student** %4, align 8
  %74 = getelementptr inbounds %struct.student, %struct.student* %73, i32 0, i32 4
  %75 = load %struct.student*, %struct.student** %74, align 8
  %76 = icmp ne %struct.student* %75, null
  br i1 %76, label %57, label %77

77:                                               ; preds = %72
  %78 = load %struct.student*, %struct.student** %5, align 8
  %79 = getelementptr inbounds %struct.student, %struct.student* %78, i32 0, i32 0
  %80 = load i32, i32* %79, align 8
  %81 = load %struct.student*, %struct.student** %5, align 8
  %82 = getelementptr inbounds %struct.student, %struct.student* %81, i32 0, i32 3
  %83 = load i32, i32* %82, align 4
  %84 = call i32 (i8*, ...) @printf(i8* getelementptr inbounds ([7 x i8], [7 x i8]* @.str.2, i64 0, i64 0), i32 %80, i32 %83)
  %85 = load %struct.student*, %struct.student** %5, align 8
  %86 = getelementptr inbounds %struct.student, %struct.student* %85, i32 0, i32 3
  store i32 0, i32* %86, align 4
  br label %87

87:                                               ; preds = %77
  %88 = load i32, i32* %2, align 4
  %89 = add nsw i32 %88, 1
  store i32 %89, i32* %2, align 4
  br label %49

90:                                               ; preds = %49
  ret void
}

declare dso_local i32 @__isoc99_scanf(i8*, ...) #1

; Function Attrs: nounwind
declare dso_local noalias i8* @malloc(i64) #2

declare dso_local i32 @printf(i8*, ...) #1


!llvm.module.flags = !{!0}
!llvm.ident = !{!1}

!0 = !{i32 1, !"wchar_size", i32 4}
!1 = !{!"clang version 10.0.0-4ubuntu1 "}
